; Function Attrs: nounwind uwtable
define ptr @l_Lean_Compiler_LCNF_normParam___at_Lean_Compiler_LCNF_normFunDeclImp___spec__2___rarg(i8 noundef zeroext %0, ptr noundef %1, ptr noundef readonly captures(none) %2, ptr noundef readnone captures(none) %3, ptr noundef %4, ptr noundef readnone captures(none) %5, ptr noundef readnone captures(none) %6, ptr noundef %7) local_unnamed_addr #2 {
  %9 = getelementptr inbounds nuw i8, ptr %1, i64 24
  %10 = load ptr, ptr %9, align 8, !tbaa !4
  %11 = ptrtoint ptr %10 to i64
  %12 = and i64 %11, 1
  %.not = icmp eq i64 %12, 0
  br i1 %.not, label %13, label %lean_inc.exit

13:                                               ; preds = %8
  %.val.i = load i32, ptr %10, align 4, !tbaa !8
  %14 = icmp sgt i32 %.val.i, 0
  br i1 %14, label %15, label %17, !prof !11

15:                                               ; preds = %13
  %16 = add nuw i32 %.val.i, 1
  store i32 %16, ptr %10, align 4, !tbaa !8
  br label %lean_inc.exit

17:                                               ; preds = %13
  %.not.i = icmp eq i32 %.val.i, 0
  br i1 %.not.i, label %lean_inc.exit, label %18

18:                                               ; preds = %17
  tail call void @lean_inc_ref_cold(ptr noundef nonnull %10) #6
  br label %lean_inc.exit

lean_inc.exit:                                    ; preds = %18, %17, %15, %8
  %19 = tail call ptr @l___private_Lean_Compiler_LCNF_CompilerM_0__Lean_Compiler_LCNF_normExprImp_go(ptr noundef %2, i8 noundef zeroext %0, ptr noundef %10)
  %20 = tail call ptr @l___private_Lean_Compiler_LCNF_CompilerM_0__Lean_Compiler_LCNF_updateParamImp(ptr noundef nonnull %1, ptr noundef %19, ptr poison, ptr noundef %4, ptr poison, ptr poison, ptr noundef %7)
  ret ptr %20
}